; Function Attrs: mustprogress nofree norecurse nosync nounwind willreturn memory(argmem: readwrite) uwtable
define dso_local noundef nonnull align 8 dereferenceable(48) ptr @_ZN3ozz9animation8SkeletonaSEOS1_(ptr noundef nonnull returned align 8 dereferenceable(48) %0, ptr nocapture noundef nonnull align 8 dereferenceable(48) %1) local_unnamed_addr #4 align 2 {
  %.sroa.0.0.copyload.i = load ptr, ptr %0, align 8
  %.sroa.2.0..sroa_idx.i = getelementptr inbounds i8, ptr %0, i64 8
  %.sroa.2.0.copyload.i = load i64, ptr %.sroa.2.0..sroa_idx.i, align 8
  %3 = load ptr, ptr %1, align 8
  store ptr %3, ptr %0, align 8
  %4 = getelementptr inbounds i8, ptr %1, i64 8
  %5 = load i64, ptr %4, align 8
  store i64 %5, ptr %.sroa.2.0..sroa_idx.i, align 8
  store ptr %.sroa.0.0.copyload.i, ptr %1, align 8
  store i64 %.sroa.2.0.copyload.i, ptr %4, align 8
  %6 = getelementptr inbounds i8, ptr %0, i64 16
  %7 = getelementptr inbounds i8, ptr %1, i64 16
  %.sroa.0.0.copyload.i4 = load ptr, ptr %6, align 8
  %.sroa.2.0..sroa_idx.i5 = getelementptr inbounds i8, ptr %0, i64 24
  %.sroa.2.0.copyload.i6 = load i64, ptr %.sroa.2.0..sroa_idx.i5, align 8
  %8 = load ptr, ptr %7, align 8
  store ptr %8, ptr %6, align 8
  %9 = getelementptr inbounds i8, ptr %1, i64 24
  %10 = load i64, ptr %9, align 8
  store i64 %10, ptr %.sroa.2.0..sroa_idx.i5, align 8
  store ptr %.sroa.0.0.copyload.i4, ptr %7, align 8
  store i64 %.sroa.2.0.copyload.i6, ptr %9, align 8
  %11 = getelementptr inbounds i8, ptr %0, i64 32
  %12 = getelementptr inbounds i8, ptr %1, i64 32
  %.sroa.0.0.copyload.i7 = load ptr, ptr %11, align 8
  %.sroa.2.0..sroa_idx.i8 = getelementptr inbounds i8, ptr %0, i64 40
  %.sroa.2.0.copyload.i9 = load i64, ptr %.sroa.2.0..sroa_idx.i8, align 8
  %13 = load ptr, ptr %12, align 8
  store ptr %13, ptr %11, align 8
  %14 = getelementptr inbounds i8, ptr %1, i64 40
  %15 = load i64, ptr %14, align 8
  store i64 %15, ptr %.sroa.2.0..sroa_idx.i8, align 8
  store ptr %.sroa.0.0.copyload.i7, ptr %12, align 8
  store i64 %.sroa.2.0.copyload.i9, ptr %14, align 8
  ret ptr %0
}